; Function Attrs: mustprogress nofree norecurse nosync nounwind willreturn memory(read, inaccessiblemem: none) uwtable
define noundef zeroext i1 @_ZNK4LIEF3ELF7GnuHash18check_bloom_filterEj(ptr noundef nonnull readonly align 8 captures(none) dereferenceable(96) %0, i32 noundef %1) local_unnamed_addr #2 align 2 {
  %3 = getelementptr inbounds nuw i8, ptr %0, i64 88
  %4 = load i64, ptr %3, align 8, !tbaa !30
  %5 = getelementptr inbounds nuw i8, ptr %0, i64 12
  %6 = load i32, ptr %5, align 4, !tbaa !23
  %7 = lshr i32 %1, %6
  %8 = zext i32 %1 to i64
  %9 = udiv i64 %8, %4
  %10 = getelementptr inbounds nuw i8, ptr %0, i64 16
  %11 = getelementptr inbounds nuw i8, ptr %0, i64 24
  %12 = load ptr, ptr %11, align 8, !tbaa !25
  %13 = load ptr, ptr %10, align 8, !tbaa !24
  %14 = ptrtoint ptr %12 to i64
  %15 = ptrtoint ptr %13 to i64
  %16 = sub i64 %14, %15
  %17 = lshr exact i64 %16, 3
  %18 = trunc i64 %17 to i32
  %.lhs.trunc = trunc nuw i64 %9 to i32
  %19 = urem i32 %.lhs.trunc, %18
  %.zext = zext i32 %19 to i64
  %20 = urem i64 %8, %4
  %21 = zext i32 %7 to i64
  %22 = urem i64 %21, %4
  %23 = getelementptr inbounds nuw i64, ptr %13, i64 %.zext
  %24 = load i64, ptr %23, align 8, !tbaa !31
  %25 = lshr i64 %24, %20
  %26 = lshr i64 %24, %22
  %27 = and i64 %26, 1
  %28 = and i64 %27, %25
  %29 = icmp ne i64 %28, 0
  ret i1 %29
}